target datalayout = "e-m:e-p270:32:32-p271:32:32-p272:64:64-i64:64-i128:128-f80:128-n8:16:32:64-S128"
target triple = "x86_64-pc-linux-gnu"

%class.ptr_vector.0 = type { %class.vector.1 }
%class.vector.1 = type { ptr }
%class.ptr_vector.2 = type { %class.vector.3 }
%class.vector.3 = type { ptr }
%class.obj_ref = type { ptr, ptr }
%"class.spacer::pred_transformer" = type { ptr, ptr, ptr, %class.obj_ref.5, %class.ref_vector.6, %class.ptr_vector.11, %"class.spacer::pred_transformer::pt_rules", %class.ptr_vector.18, %class.scoped_ptr.20, %class.ref.21, %"class.spacer::pred_transformer::pob_manager", %"class.spacer::pred_transformer::frames", %class.ref_vector_core.30, i32, %class.ref_vector.34, %class.obj_ref, %class.obj_ref, %class.obj_ref.39, %class.obj_ref.39, i8, %class.ptr_vector.9, %"struct.spacer::pred_transformer::stats", %class.stopwatch, %class.stopwatch, %class.stopwatch, %class.stopwatch, i8, [7 x i8], %"class.spacer::pred_transformer::cluster_db" }
%class.obj_ref.5 = type { ptr, ptr }
%class.ref_vector.6 = type { %class.ref_vector_core.7 }
%class.ref_vector_core.7 = type { %class.ref_manager_wrapper.8, %class.ptr_vector.9 }
%class.ref_manager_wrapper.8 = type { ptr }
%class.ptr_vector.11 = type { %class.vector.12 }
%class.vector.12 = type { ptr }
%"class.spacer::pred_transformer::pt_rules" = type { %class.obj_map, %class.obj_map.13 }
%class.obj_map = type { %class.core_hashtable }
%class.core_hashtable = type <{ ptr, i32, i32, i32, [4 x i8] }>
%class.obj_map.13 = type { %class.core_hashtable.14 }
%class.core_hashtable.14 = type <{ ptr, i32, i32, i32, [4 x i8] }>
%class.ptr_vector.18 = type { %class.vector.19 }
%class.vector.19 = type { ptr }
%class.scoped_ptr.20 = type { ptr }
%class.ref.21 = type { ptr }
%"class.spacer::pred_transformer::pob_manager" = type { ptr, %class.obj_map.22, %class.ref_vector_core.27 }
%class.obj_map.22 = type { %class.core_hashtable.23 }
%class.core_hashtable.23 = type <{ ptr, i32, i32, i32, [4 x i8] }>
%class.ref_vector_core.27 = type { %class.ptr_vector.0 }
%"class.spacer::pred_transformer::frames" = type <{ ptr, %class.ref_vector_core.28, %class.ref_vector_core.28, %class.ref_vector_core.28, i32, i8, [3 x i8] }>
%class.ref_vector_core.28 = type { %class.ptr_vector.2 }
%class.ref_vector_core.30 = type { %class.ptr_vector.32 }
%class.ptr_vector.32 = type { %class.vector.33 }
%class.vector.33 = type { ptr }
%class.ref_vector.34 = type { %class.ref_vector_core.35 }
%class.ref_vector_core.35 = type { %class.ref_manager_wrapper.36, %class.ptr_vector.37 }
%class.ref_manager_wrapper.36 = type { ptr }
%class.ptr_vector.37 = type { %class.vector.38 }
%class.vector.38 = type { ptr }
%class.obj_ref.39 = type { ptr, ptr }
%class.ptr_vector.9 = type { %class.vector.10 }
%class.vector.10 = type { ptr }
%"struct.spacer::pred_transformer::stats" = type { i32, i32, i32, i32, i32, i32 }
%class.stopwatch = type <{ %"class.std::chrono::time_point", %"class.std::chrono::duration", i8, [7 x i8] }>
%"class.std::chrono::time_point" = type { %"class.std::chrono::duration" }
%"class.std::chrono::duration" = type { i64 }
%"class.spacer::pred_transformer::cluster_db" = type <{ %class.ref_vector_core.40, i32, [4 x i8] }>
%class.ref_vector_core.40 = type { %class.ptr_vector.42 }
%class.ptr_vector.42 = type { %class.vector.43 }
%class.vector.43 = type { ptr }

; Function Attrs: noinline noreturn nounwind uwtable
define linkonce_odr hidden void @__clang_call_terminate(ptr noundef %0) #11 comdat {
  %2 = call ptr @__cxa_begin_catch(ptr %0) #3
  call void @_ZSt9terminatev() #23
  unreachable
}

; Function Attrs: mustprogress nounwind uwtable
define linkonce_odr hidden void @_ZNSt6chrono8durationIlSt5ratioILl1ELl1000000000EEEC2IlvEERKT_(ptr noundef nonnull align 8 dereferenceable(8) %0, ptr noundef nonnull align 8 dereferenceable(8) %1) unnamed_addr #5 comdat align 2 {
  %3 = alloca ptr, align 8
  %4 = alloca ptr, align 8
  store ptr %0, ptr %3, align 8, !tbaa !1212
  store ptr %1, ptr %4, align 8, !tbaa !1214
  %5 = load ptr, ptr %3, align 8
  %6 = getelementptr inbounds nuw %"class.std::chrono::duration", ptr %5, i32 0, i32 0
  %7 = load ptr, ptr %4, align 8, !tbaa !1214
  %8 = load i64, ptr %7, align 8, !tbaa !486
  store i64 %8, ptr %6, align 8, !tbaa !1215
  ret void
}

; Function Attrs: mustprogress nounwind uwtable
define linkonce_odr hidden noundef i64 @_ZNSt6chrono15duration_valuesIlE4zeroEv() #5 comdat align 2 {
  ret i64 0
}

; Function Attrs: mustprogress nounwind uwtable
define linkonce_odr hidden i64 @_ZNSt6chrono8durationIlSt5ratioILl1ELl1000000000EEE4zeroEv() #5 comdat align 2 personality ptr @__gxx_personality_v0 {
  %1 = alloca %"class.std::chrono::duration", align 8
  %2 = alloca i64, align 8
  call void @llvm.lifetime.start.p0(i64 8, ptr %2) #3
  %3 = call noundef i64 @_ZNSt6chrono15duration_valuesIlE4zeroEv() #3
  store i64 %3, ptr %2, align 8, !tbaa !486
  invoke void @_ZNSt6chrono8durationIlSt5ratioILl1ELl1000000000EEEC2IlvEERKT_(ptr noundef nonnull align 8 dereferenceable(8) %1, ptr noundef nonnull align 8 dereferenceable(8) %2)
          to label %4 unwind label %7

4:                                                ; preds = %0
  call void @llvm.lifetime.end.p0(i64 8, ptr %2) #3
  %5 = getelementptr inbounds nuw %"class.std::chrono::duration", ptr %1, i32 0, i32 0
  %6 = load i64, ptr %5, align 8
  ret i64 %6

7:                                                ; preds = %0
  %8 = landingpad { ptr, i32 }
          catch ptr null
  %9 = extractvalue { ptr, i32 } %8, 0
  call void @__clang_call_terminate(ptr %9) #23
  unreachable
}

; Function Attrs: mustprogress nounwind uwtable
define linkonce_odr hidden void @_ZN9stopwatch5resetEv(ptr noundef nonnull align 8 dereferenceable(17) %0) #5 comdat align 2 {
  %2 = alloca ptr, align 8
  %3 = alloca %"class.std::chrono::duration", align 8
  store ptr %0, ptr %2, align 8, !tbaa !441
  %4 = load ptr, ptr %2, align 8
  call void @llvm.lifetime.start.p0(i64 8, ptr %3) #3
  %5 = call i64 @_ZNSt6chrono8durationIlSt5ratioILl1ELl1000000000EEE4zeroEv() #3
  %6 = getelementptr inbounds nuw %"class.std::chrono::duration", ptr %3, i32 0, i32 0
  store i64 %5, ptr %6, align 8
  %7 = getelementptr inbounds nuw %class.stopwatch, ptr %4, i32 0, i32 1
  call void @llvm.memcpy.p0.p0.i64(ptr align 8 %7, ptr align 8 %3, i64 8, i1 false), !tbaa.struct !485
  call void @llvm.lifetime.end.p0(i64 8, ptr %3) #3
  ret void
}

; Function Attrs: mustprogress nounwind uwtable
define linkonce_odr hidden void @_ZN6spacer16pred_transformer5stats5resetEv(ptr noundef nonnull align 4 dereferenceable(24) %0) #5 comdat align 2 {
  %2 = alloca ptr, align 8
  store ptr %0, ptr %2, align 8, !tbaa !439
  %3 = load ptr, ptr %2, align 8
  call void @llvm.memset.p0.i64(ptr align 4 %3, i8 0, i64 24, i1 false)
  ret void
}

; Function Attrs: mustprogress nounwind uwtable
define linkonce_odr hidden noundef ptr @_ZNK10scoped_ptrIN6spacer11prop_solverEEptEv(ptr noundef nonnull align 8 dereferenceable(8) %0) #5 comdat align 2 {
  %2 = alloca ptr, align 8
  store ptr %0, ptr %2, align 8, !tbaa !420
  %3 = load ptr, ptr %2, align 8
  %4 = getelementptr inbounds nuw %class.scoped_ptr.20, ptr %3, i32 0, i32 0
  %5 = load ptr, ptr %4, align 8, !tbaa !423
  ret ptr %5
}

; Function Attrs: mustprogress uwtable
define hidden void @_ZN6spacer16pred_transformer16reset_statisticsEv(ptr noundef nonnull align 8 dereferenceable(472) %0) #4 align 2 {
  %2 = alloca ptr, align 8
  store ptr %0, ptr %2, align 8, !tbaa !8
  %3 = load ptr, ptr %2, align 8
  %4 = getelementptr inbounds nuw %"class.spacer::pred_transformer", ptr %3, i32 0, i32 8
  %5 = call noundef ptr @_ZNK10scoped_ptrIN6spacer11prop_solverEEptEv(ptr noundef nonnull align 8 dereferenceable(8) %4)
  call void @_ZN6spacer11prop_solver16reset_statisticsEv(ptr noundef nonnull align 8 dereferenceable(156) %5)
  %6 = getelementptr inbounds nuw %"class.spacer::pred_transformer", ptr %3, i32 0, i32 21
  call void @_ZN6spacer16pred_transformer5stats5resetEv(ptr noundef nonnull align 4 dereferenceable(24) %6)
  %7 = getelementptr inbounds nuw %"class.spacer::pred_transformer", ptr %3, i32 0, i32 22
  call void @_ZN9stopwatch5resetEv(ptr noundef nonnull align 8 dereferenceable(17) %7)
  %8 = getelementptr inbounds nuw %"class.spacer::pred_transformer", ptr %3, i32 0, i32 23
  call void @_ZN9stopwatch5resetEv(ptr noundef nonnull align 8 dereferenceable(17) %8)
  %9 = getelementptr inbounds nuw %"class.spacer::pred_transformer", ptr %3, i32 0, i32 24
  call void @_ZN9stopwatch5resetEv(ptr noundef nonnull align 8 dereferenceable(17) %9)
  %10 = getelementptr inbounds nuw %"class.spacer::pred_transformer", ptr %3, i32 0, i32 25
  call void @_ZN9stopwatch5resetEv(ptr noundef nonnull align 8 dereferenceable(17) %10)
  ret void
}