; Function Attrs: mustprogress uwtable
define hidden void @_ZN6spacer16pred_transformer16reset_statisticsEv(ptr noundef nonnull align 8 captures(none) dereferenceable(472) initializes((328, 352), (360, 368), (384, 392), (408, 416), (432, 440)) %0) local_unnamed_addr #3 align 2 personality ptr @__gxx_personality_v0 {
  %2 = getelementptr inbounds nuw i8, ptr %0, i64 120
  %3 = load ptr, ptr %2, align 8, !tbaa !430
  tail call void @_ZN6spacer11prop_solver16reset_statisticsEv(ptr noundef nonnull align 8 dereferenceable(156) %3)
  %4 = getelementptr inbounds nuw i8, ptr %0, i64 328
  tail call void @llvm.memset.p0.i64(ptr noundef nonnull align 8 dereferenceable(24) %4, i8 0, i64 24, i1 false)
  %5 = getelementptr inbounds nuw i8, ptr %0, i64 360
  store i64 0, ptr %5, align 8, !tbaa !204
  %6 = getelementptr inbounds nuw i8, ptr %0, i64 384
  store i64 0, ptr %6, align 8, !tbaa !204
  %7 = getelementptr inbounds nuw i8, ptr %0, i64 408
  store i64 0, ptr %7, align 8, !tbaa !204
  %8 = getelementptr inbounds nuw i8, ptr %0, i64 432
  store i64 0, ptr %8, align 8, !tbaa !204
  ret void
}